target datalayout = "e-m:e-p270:32:32-p271:32:32-p272:64:64-i64:64-i128:128-f80:128-n8:16:32:64-S128"
target triple = "x86_64-pc-linux-gnu"

%struct.RmgrDescData = type { ptr, ptr, ptr }

@.str.90 = private unnamed_addr constant [4 x i8] c"%s\0A\00", align 1

; Function Attrs: nounwind uwtable
define internal void @print_rmgr_list() #0 {
  %1 = alloca i32, align 4
  call void @llvm.lifetime.start.p0(i64 4, ptr %1) #10
  store i32 0, ptr %1, align 4
  br label %2

2:                                                ; preds = %12, %0
  %3 = load i32, ptr %1, align 4
  %4 = icmp sle i32 %3, 21
  br i1 %4, label %5, label %15

5:                                                ; preds = %2
  %6 = load i32, ptr %1, align 4
  %7 = trunc i32 %6 to i8
  %8 = call ptr @GetRmgrDesc(i8 noundef zeroext %7)
  %9 = getelementptr inbounds nuw %struct.RmgrDescData, ptr %8, i32 0, i32 0
  %10 = load ptr, ptr %9, align 8
  %11 = call i32 (ptr, ...) @pg_printf(ptr noundef @.str.90, ptr noundef %10)
  br label %12

12:                                               ; preds = %5
  %13 = load i32, ptr %1, align 4
  %14 = add i32 %13, 1
  store i32 %14, ptr %1, align 4
  br label %2, !llvm.loop !10

15:                                               ; preds = %2
  call void @llvm.lifetime.end.p0(i64 4, ptr %1) #10
  ret void
}