; Function Attrs: nounwind uwtable
define internal fastcc void @print_rmgr_list() unnamed_addr #0 {
  br label %1

1:                                                ; preds = %0, %1
  %.03 = phi i32 [ 0, %0 ], [ %6, %1 ]
  %2 = trunc nuw i32 %.03 to i8
  %3 = tail call ptr @GetRmgrDesc(i8 noundef zeroext %2) #16
  %4 = load ptr, ptr %3, align 8
  %5 = tail call i32 (ptr, ...) @pg_printf(ptr noundef nonnull @.str.90, ptr noundef %4) #16
  %6 = add nuw nsw i32 %.03, 1
  %exitcond.not = icmp eq i32 %6, 22
  br i1 %exitcond.not, label %7, label %1, !llvm.loop !11

7:                                                ; preds = %1
  ret void
}